target datalayout = "e-m:e-p270:32:32-p271:32:32-p272:64:64-i64:64-i128:128-f80:128-n8:16:32:64-S128"
target triple = "x86_64-pc-linux-gnu"

%"class.icu_77::NFRule" = type { i64, i32, i16, i16, %"class.icu_77::UnicodeString", ptr, ptr, ptr, ptr }
%"class.icu_77::UnicodeString" = type { %"class.icu_77::Replaceable", %"union.icu_77::UnicodeString::StackBufferOrFields" }
%"class.icu_77::Replaceable" = type { %"class.icu_77::UObject" }
%"class.icu_77::UObject" = type { ptr }
%"union.icu_77::UnicodeString::StackBufferOrFields" = type { %struct.anon.0, [32 x i8] }
%struct.anon.0 = type { i16, i32, i32, ptr }

; Function Attrs: mustprogress uwtable
define noundef signext i8 @_ZNK6icu_776NFRule14shouldRollBackEl(ptr noundef nonnull align 8 dereferenceable(112) %0, i64 noundef %1) #0 align 2 {
  %3 = alloca i8, align 1
  %4 = alloca ptr, align 8
  %5 = alloca i64, align 8
  %6 = alloca i64, align 8
  store ptr %0, ptr %4, align 8, !tbaa !3
  store i64 %1, ptr %5, align 8, !tbaa !36
  %7 = load ptr, ptr %4, align 8
  %8 = getelementptr inbounds nuw %"class.icu_77::NFRule", ptr %7, i32 0, i32 5
  %9 = load ptr, ptr %8, align 8, !tbaa !27
  %10 = icmp ne ptr %9, null
  br i1 %10, label %11, label %19

11:                                               ; preds = %2
  %12 = getelementptr inbounds nuw %"class.icu_77::NFRule", ptr %7, i32 0, i32 5
  %13 = load ptr, ptr %12, align 8, !tbaa !27
  %14 = load ptr, ptr %13, align 8, !tbaa !42
  %15 = getelementptr inbounds ptr, ptr %14, i64 14
  %16 = load ptr, ptr %15, align 8
  %17 = call noundef signext i8 %16(ptr noundef nonnull align 8 dereferenceable(32) %13)
  %18 = icmp ne i8 %17, 0
  br i1 %18, label %31, label %19

19:                                               ; preds = %11, %2
  %20 = getelementptr inbounds nuw %"class.icu_77::NFRule", ptr %7, i32 0, i32 6
  %21 = load ptr, ptr %20, align 8, !tbaa !28
  %22 = icmp ne ptr %21, null
  br i1 %22, label %23, label %50

23:                                               ; preds = %19
  %24 = getelementptr inbounds nuw %"class.icu_77::NFRule", ptr %7, i32 0, i32 6
  %25 = load ptr, ptr %24, align 8, !tbaa !28
  %26 = load ptr, ptr %25, align 8, !tbaa !42
  %27 = getelementptr inbounds ptr, ptr %26, i64 14
  %28 = load ptr, ptr %27, align 8
  %29 = call noundef signext i8 %28(ptr noundef nonnull align 8 dereferenceable(32) %25)
  %30 = icmp ne i8 %29, 0
  br i1 %30, label %31, label %50

31:                                               ; preds = %23, %11
  call void @llvm.lifetime.start.p0(i64 8, ptr %6) #9
  %32 = getelementptr inbounds nuw %"class.icu_77::NFRule", ptr %7, i32 0, i32 1
  %33 = load i32, ptr %32, align 8, !tbaa !24
  %34 = getelementptr inbounds nuw %"class.icu_77::NFRule", ptr %7, i32 0, i32 2
  %35 = load i16, ptr %34, align 4, !tbaa !25
  %36 = call noundef i64 @_ZN6icu_7710util64_powEjt(i32 noundef %33, i16 noundef zeroext %35)
  store i64 %36, ptr %6, align 8, !tbaa !36
  %37 = load i64, ptr %5, align 8, !tbaa !36
  %38 = load i64, ptr %6, align 8, !tbaa !36
  %39 = srem i64 %37, %38
  %40 = icmp eq i64 %39, 0
  br i1 %40, label %41, label %47

41:                                               ; preds = %31
  %42 = getelementptr inbounds nuw %"class.icu_77::NFRule", ptr %7, i32 0, i32 0
  %43 = load i64, ptr %42, align 8, !tbaa !13
  %44 = load i64, ptr %6, align 8, !tbaa !36
  %45 = srem i64 %43, %44
  %46 = icmp ne i64 %45, 0
  br label %47

47:                                               ; preds = %41, %31
  %48 = phi i1 [ false, %31 ], [ %46, %41 ]
  %49 = zext i1 %48 to i8
  store i8 %49, ptr %3, align 1
  call void @llvm.lifetime.end.p0(i64 8, ptr %6) #9
  br label %51

50:                                               ; preds = %23, %19
  store i8 0, ptr %3, align 1
  br label %51

51:                                               ; preds = %50, %47
  %52 = load i8, ptr %3, align 1
  ret i8 %52
}