; Function Attrs: mustprogress uwtable
define noundef signext range(i8 0, 2) i8 @_ZNK6icu_776NFRule14shouldRollBackEl(ptr noundef nonnull readonly align 8 captures(none) dereferenceable(112) %0, i64 noundef %1) local_unnamed_addr #0 align 2 {
  %3 = getelementptr inbounds nuw i8, ptr %0, i64 80
  %4 = load ptr, ptr %3, align 8, !tbaa !38
  %.not = icmp eq ptr %4, null
  br i1 %.not, label %10, label %5

5:                                                ; preds = %2
  %6 = load ptr, ptr %4, align 8, !tbaa !24
  %7 = getelementptr inbounds nuw i8, ptr %6, i64 112
  %8 = load ptr, ptr %7, align 8
  %9 = tail call noundef signext i8 %8(ptr noundef nonnull align 8 dereferenceable(32) %4)
  %.not6 = icmp eq i8 %9, 0
  br i1 %.not6, label %10, label %18

10:                                               ; preds = %5, %2
  %11 = getelementptr inbounds nuw i8, ptr %0, i64 88
  %12 = load ptr, ptr %11, align 8, !tbaa !39
  %.not7 = icmp eq ptr %12, null
  br i1 %.not7, label %31, label %13

13:                                               ; preds = %10
  %14 = load ptr, ptr %12, align 8, !tbaa !24
  %15 = getelementptr inbounds nuw i8, ptr %14, i64 112
  %16 = load ptr, ptr %15, align 8
  %17 = tail call noundef signext i8 %16(ptr noundef nonnull align 8 dereferenceable(32) %12)
  %.not8 = icmp eq i8 %17, 0
  br i1 %.not8, label %31, label %18

18:                                               ; preds = %13, %5
  %19 = getelementptr inbounds nuw i8, ptr %0, i64 8
  %20 = load i32, ptr %19, align 8, !tbaa !18
  %21 = getelementptr inbounds nuw i8, ptr %0, i64 12
  %22 = load i16, ptr %21, align 4, !tbaa !19
  %23 = tail call noundef i64 @_ZN6icu_7710util64_powEjt(i32 noundef %20, i16 noundef zeroext %22)
  %24 = srem i64 %1, %23
  %25 = icmp eq i64 %24, 0
  br i1 %25, label %26, label %31

26:                                               ; preds = %18
  %27 = load i64, ptr %0, align 8, !tbaa !3
  %28 = srem i64 %27, %23
  %29 = icmp ne i64 %28, 0
  %30 = zext i1 %29 to i8
  br label %31

31:                                               ; preds = %10, %13, %18, %26
  %.0 = phi i8 [ 0, %18 ], [ %30, %26 ], [ 0, %13 ], [ 0, %10 ]
  ret i8 %.0
}